; Function Attrs: mustprogress nounwind uwtable
define internal void @_ZN9grpc_core12_GLOBAL__N_121OldWeightedRoundRobin32WeightedRoundRobinSubchannelDataD2Ev(ptr nocapture noundef nonnull align 8 dereferenceable(64) %this) unnamed_addr #13 align 2 personality ptr @__gxx_personality_v0 {
entry:
  store ptr getelementptr inbounds ({ [5 x ptr] }, ptr @_ZTVN9grpc_core12_GLOBAL__N_121OldWeightedRoundRobin32WeightedRoundRobinSubchannelDataE, i64 0, i32 0, i64 2), ptr %this, align 8
  %weight_ = getelementptr inbounds i8, ptr %this, i64 56
  %weight_.val = load ptr, ptr %weight_, align 8
  %cmp.not.i = icmp eq ptr %weight_.val, null
  br i1 %cmp.not.i, label %_ZN9grpc_core13RefCountedPtrINS_12_GLOBAL__N_121OldWeightedRoundRobin13AddressWeightEED2Ev.exit, label %if.then.i

if.then.i:                                        ; preds = %entry
  %refs_.i.i = getelementptr inbounds i8, ptr %weight_.val, i64 8
  %0 = atomicrmw sub ptr %refs_.i.i, i64 1 acq_rel, align 8
  %cmp.i.i.i = icmp eq i64 %0, 1
  br i1 %cmp.i.i.i, label %if.then.i.i, label %_ZN9grpc_core13RefCountedPtrINS_12_GLOBAL__N_121OldWeightedRoundRobin13AddressWeightEED2Ev.exit

if.then.i.i:                                      ; preds = %if.then.i
  %vtable.i.i.i = load ptr, ptr %weight_.val, align 8
  %vfn.i.i.i = getelementptr inbounds i8, ptr %vtable.i.i.i, i64 8
  %1 = load ptr, ptr %vfn.i.i.i, align 8
  tail call void %1(ptr noundef nonnull align 8 dereferenceable(88) %weight_.val) #30
  br label %_ZN9grpc_core13RefCountedPtrINS_12_GLOBAL__N_121OldWeightedRoundRobin13AddressWeightEED2Ev.exit

_ZN9grpc_core13RefCountedPtrINS_12_GLOBAL__N_121OldWeightedRoundRobin13AddressWeightEED2Ev.exit: ; preds = %entry, %if.then.i, %if.then.i.i
  tail call void @_ZN9grpc_core14SubchannelDataINS_12_GLOBAL__N_121OldWeightedRoundRobin32WeightedRoundRobinSubchannelListENS2_32WeightedRoundRobinSubchannelDataEED2Ev(ptr noundef nonnull align 8 dereferenceable(48) %this) #30
  ret void
}